target datalayout = "e-m:e-p270:32:32-p271:32:32-p272:64:64-i64:64-i128:128-f80:128-n8:16:32:64-S128"
target triple = "x86_64-pc-linux-gnu"

%class.macro_util = type { ptr, %class.bv_util, %class.arith_util, %class.arith_rewriter, %class.bv_rewriter, ptr, ptr }
%class.bv_util = type { %class.bv_recognizers, ptr, ptr }
%class.bv_recognizers = type { i32 }
%class.arith_util = type { ptr, ptr }
%class.arith_rewriter = type { %class.poly_rewriter.base, i8, i8, i8, i8, i8, i8, i8, i8, i32 }
%class.poly_rewriter.base = type <{ %class.arith_rewriter_core.base, [5 x i8], ptr, %class.obj_map, i8, i8, [2 x i8], i32, i8, i8, i8, i8 }>
%class.arith_rewriter_core.base = type <{ ptr, %class.arith_util, %class.scoped_ptr, i8, i8, i8 }>
%class.scoped_ptr = type { ptr }
%class.obj_map = type { %class.core_hashtable }
%class.core_hashtable = type <{ ptr, i32, i32, i32, [4 x i8] }>
%class.bv_rewriter = type <{ %class.poly_rewriter.base.1, [4 x i8], %class.mk_extract_proc, %class.arith_util, i8, i8, i8, i8, i8, i8, i8, i8, i8, i8, i8, i8, i8, [3 x i8] }>
%class.poly_rewriter.base.1 = type <{ %class.bv_rewriter_core, ptr, %class.obj_map, i8, i8, [2 x i8], i32, i8, i8, i8, i8 }>
%class.bv_rewriter_core = type { ptr, %class.bv_util, %class.obj_ref }
%class.obj_ref = type { ptr, ptr }
%class.mk_extract_proc = type { ptr, i32, i32, ptr, ptr }

; Function Attrs: mustprogress uwtable
define hidden noundef zeroext i1 @_ZNK10macro_util18is_times_minus_oneEP4exprRS1_(ptr noundef nonnull align 8 dereferenceable(320) %0, ptr noundef %1, ptr noundef nonnull align 8 dereferenceable(8) %2) #4 align 2 {
  %4 = alloca ptr, align 8
  %5 = alloca ptr, align 8
  %6 = alloca ptr, align 8
  store ptr %0, ptr %4, align 8, !tbaa !3
  store ptr %1, ptr %5, align 8, !tbaa !50
  store ptr %2, ptr %6, align 8, !tbaa !56
  %7 = load ptr, ptr %4, align 8
  %8 = getelementptr inbounds nuw %class.macro_util, ptr %7, i32 0, i32 3
  %9 = load ptr, ptr %5, align 8, !tbaa !50
  %10 = load ptr, ptr %6, align 8, !tbaa !56
  %11 = call noundef zeroext i1 @_ZNK13poly_rewriterI19arith_rewriter_coreE18is_times_minus_oneEP4exprRS3_(ptr noundef nonnull align 8 dereferenceable(84) %8, ptr noundef %9, ptr noundef nonnull align 8 dereferenceable(8) %10)
  br i1 %11, label %17, label %12

12:                                               ; preds = %3
  %13 = getelementptr inbounds nuw %class.macro_util, ptr %7, i32 0, i32 4
  %14 = load ptr, ptr %5, align 8, !tbaa !50
  %15 = load ptr, ptr %6, align 8, !tbaa !56
  %16 = call noundef zeroext i1 @_ZNK13poly_rewriterI16bv_rewriter_coreE18is_times_minus_oneEP4exprRS3_(ptr noundef nonnull align 8 dereferenceable(92) %13, ptr noundef %14, ptr noundef nonnull align 8 dereferenceable(8) %15)
  br label %17

17:                                               ; preds = %12, %3
  %18 = phi i1 [ true, %3 ], [ %16, %12 ]
  ret i1 %18
}