; Function Attrs: mustprogress uwtable
define hidden noundef zeroext i1 @_ZNK10macro_util18is_times_minus_oneEP4exprRS1_(ptr noundef nonnull align 8 dereferenceable(320) %0, ptr noundef %1, ptr noundef nonnull align 8 dereferenceable(8) %2) local_unnamed_addr #3 align 2 {
  %4 = getelementptr inbounds nuw i8, ptr %0, i64 48
  %5 = tail call noundef zeroext i1 @_ZNK13poly_rewriterI19arith_rewriter_coreE18is_times_minus_oneEP4exprRS3_(ptr noundef nonnull align 8 dereferenceable(84) %4, ptr noundef %1, ptr noundef nonnull align 8 dereferenceable(8) %2)
  br i1 %5, label %9, label %6

6:                                                ; preds = %3
  %7 = getelementptr inbounds nuw i8, ptr %0, i64 144
  %8 = tail call noundef zeroext i1 @_ZNK13poly_rewriterI16bv_rewriter_coreE18is_times_minus_oneEP4exprRS3_(ptr noundef nonnull align 8 dereferenceable(92) %7, ptr noundef %1, ptr noundef nonnull align 8 dereferenceable(8) %2)
  br label %9

9:                                                ; preds = %6, %3
  %10 = phi i1 [ true, %3 ], [ %8, %6 ]
  ret i1 %10
}